target datalayout = "e-m:e-p270:32:32-p271:32:32-p272:64:64-i64:64-i128:128-f80:128-n8:16:32:64-S128"
target triple = "x86_64-pc-linux-gnu"

%struct.Ndr_Data_t_ = type { i32, i32, ptr, ptr }

; Function Attrs: inlinehint nounwind uwtable
define internal i32 @Ndr_DataSize(ptr noundef %0, i32 noundef %1) #2 {
  %3 = alloca ptr, align 8
  %4 = alloca i32, align 4
  store ptr %0, ptr %3, align 8, !tbaa !18
  store i32 %1, ptr %4, align 4, !tbaa !9
  %5 = load ptr, ptr %3, align 8, !tbaa !18
  %6 = load i32, ptr %4, align 4, !tbaa !9
  %7 = call i32 @Ndr_DataType(ptr noundef %5, i32 noundef %6)
  %8 = icmp sgt i32 %7, 3
  br i1 %8, label %9, label %10

9:                                                ; preds = %2
  br label %18

10:                                               ; preds = %2
  %11 = load ptr, ptr %3, align 8, !tbaa !18
  %12 = getelementptr inbounds nuw %struct.Ndr_Data_t_, ptr %11, i32 0, i32 3
  %13 = load ptr, ptr %12, align 8, !tbaa !26
  %14 = load i32, ptr %4, align 4, !tbaa !9
  %15 = sext i32 %14 to i64
  %16 = getelementptr inbounds i32, ptr %13, i64 %15
  %17 = load i32, ptr %16, align 4, !tbaa !9
  br label %18

18:                                               ; preds = %10, %9
  %19 = phi i32 [ 1, %9 ], [ %17, %10 ]
  ret i32 %19
}

; Function Attrs: inlinehint nounwind uwtable
define internal i32 @Ndr_DataEntry(ptr noundef %0, i32 noundef %1) #2 {
  %3 = alloca ptr, align 8
  %4 = alloca i32, align 4
  store ptr %0, ptr %3, align 8, !tbaa !18
  store i32 %1, ptr %4, align 4, !tbaa !9
  %5 = load ptr, ptr %3, align 8, !tbaa !18
  %6 = getelementptr inbounds nuw %struct.Ndr_Data_t_, ptr %5, i32 0, i32 3
  %7 = load ptr, ptr %6, align 8, !tbaa !26
  %8 = load i32, ptr %4, align 4, !tbaa !9
  %9 = sext i32 %8 to i64
  %10 = getelementptr inbounds i32, ptr %7, i64 %9
  %11 = load i32, ptr %10, align 4, !tbaa !9
  ret i32 %11
}

; Function Attrs: inlinehint nounwind uwtable
define internal i32 @Ndr_DataType(ptr noundef %0, i32 noundef %1) #2 {
  %3 = alloca ptr, align 8
  %4 = alloca i32, align 4
  store ptr %0, ptr %3, align 8, !tbaa !18
  store i32 %1, ptr %4, align 4, !tbaa !9
  %5 = load ptr, ptr %3, align 8, !tbaa !18
  %6 = getelementptr inbounds nuw %struct.Ndr_Data_t_, ptr %5, i32 0, i32 2
  %7 = load ptr, ptr %6, align 8, !tbaa !25
  %8 = load i32, ptr %4, align 4, !tbaa !9
  %9 = sext i32 %8 to i64
  %10 = getelementptr inbounds i8, ptr %7, i64 %9
  %11 = load i8, ptr %10, align 1, !tbaa !43
  %12 = zext i8 %11 to i32
  ret i32 %12
}

; Function Attrs: inlinehint nounwind uwtable
define internal i32 @Ndr_DataEnd(ptr noundef %0, i32 noundef %1) #2 {
  %3 = alloca ptr, align 8
  %4 = alloca i32, align 4
  store ptr %0, ptr %3, align 8, !tbaa !18
  store i32 %1, ptr %4, align 4, !tbaa !9
  %5 = load i32, ptr %4, align 4, !tbaa !9
  %6 = load ptr, ptr %3, align 8, !tbaa !18
  %7 = getelementptr inbounds nuw %struct.Ndr_Data_t_, ptr %6, i32 0, i32 3
  %8 = load ptr, ptr %7, align 8, !tbaa !26
  %9 = load i32, ptr %4, align 4, !tbaa !9
  %10 = sext i32 %9 to i64
  %11 = getelementptr inbounds i32, ptr %8, i64 %10
  %12 = load i32, ptr %11, align 4, !tbaa !9
  %13 = add i32 %5, %12
  ret i32 %13
}

; Function Attrs: inlinehint nounwind uwtable
define internal i32 @Ndr_ObjReadBody(ptr noundef %0, i32 noundef %1, i32 noundef %2) #2 {
  %4 = alloca i32, align 4
  %5 = alloca ptr, align 8
  %6 = alloca i32, align 4
  %7 = alloca i32, align 4
  %8 = alloca i32, align 4
  %9 = alloca i32, align 4
  store ptr %0, ptr %5, align 8, !tbaa !18
  store i32 %1, ptr %6, align 4, !tbaa !9
  store i32 %2, ptr %7, align 4, !tbaa !9
  call void @llvm.lifetime.start.p0(i64 4, ptr %8) #11
  %10 = load i32, ptr %6, align 4, !tbaa !9
  %11 = add nsw i32 %10, 1
  store i32 %11, ptr %8, align 4, !tbaa !9
  br label %12

12:                                               ; preds = %29, %3
  %13 = load i32, ptr %8, align 4, !tbaa !9
  %14 = load ptr, ptr %5, align 8, !tbaa !18
  %15 = load i32, ptr %6, align 4, !tbaa !9
  %16 = call i32 @Ndr_DataEnd(ptr noundef %14, i32 noundef %15)
  %17 = icmp slt i32 %13, %16
  br i1 %17, label %18, label %35

18:                                               ; preds = %12
  %19 = load ptr, ptr %5, align 8, !tbaa !18
  %20 = load i32, ptr %8, align 4, !tbaa !9
  %21 = call i32 @Ndr_DataType(ptr noundef %19, i32 noundef %20)
  %22 = load i32, ptr %7, align 4, !tbaa !9
  %23 = icmp eq i32 %21, %22
  br i1 %23, label %24, label %28

24:                                               ; preds = %18
  %25 = load ptr, ptr %5, align 8, !tbaa !18
  %26 = load i32, ptr %8, align 4, !tbaa !9
  %27 = call i32 @Ndr_DataEntry(ptr noundef %25, i32 noundef %26)
  store i32 %27, ptr %4, align 4
  store i32 1, ptr %9, align 4
  br label %36

28:                                               ; preds = %18
  br label %29

29:                                               ; preds = %28
  %30 = load ptr, ptr %5, align 8, !tbaa !18
  %31 = load i32, ptr %8, align 4, !tbaa !9
  %32 = call i32 @Ndr_DataSize(ptr noundef %30, i32 noundef %31)
  %33 = load i32, ptr %8, align 4, !tbaa !9
  %34 = add nsw i32 %33, %32
  store i32 %34, ptr %8, align 4, !tbaa !9
  br label %12, !llvm.loop !60

35:                                               ; preds = %12
  store i32 -1, ptr %4, align 4
  store i32 1, ptr %9, align 4
  br label %36

36:                                               ; preds = %35, %24
  call void @llvm.lifetime.end.p0(i64 4, ptr %8) #11
  %37 = load i32, ptr %4, align 4
  ret i32 %37
}